(dp0
S'M'
p1
(dp2
g1
F-1.776721924369053
sS'E'
p3
F-0.18535639277522836
ssS'S'
p4
(dp5
g4
F-0.8149794471455989
sS'B'
p6
F-0.5845590441999979
ssg6
(dp7
g1
F-1.9405006828418647
sg3
F-0.15505510933264552
ssg3
(dp8
g4
F-1.0069624262712982
sg6
F-0.4546453789910586
ss.